target datalayout = "e-m:e-p270:32:32-p271:32:32-p272:64:64-i64:64-i128:128-f80:128-n8:16:32:64-S128"
target triple = "x86_64-pc-linux-gnu"

%struct.FLAC__StreamMetadata_VorbisComment = type { %struct.FLAC__StreamMetadata_VorbisComment_Entry, i32, ptr }
%struct.FLAC__StreamMetadata_VorbisComment_Entry = type { i32, ptr }

; Function Attrs: nounwind sspstrong uwtable
define internal i32 @compare_block_data_vorbiscomment_(ptr noundef %0, ptr noundef %1) #0 {
  %3 = alloca i32, align 4
  %4 = alloca ptr, align 8
  %5 = alloca ptr, align 8
  %6 = alloca i32, align 4
  %7 = alloca i32, align 4
  store ptr %0, ptr %4, align 8, !tbaa !27
  store ptr %1, ptr %5, align 8, !tbaa !27
  call void @llvm.lifetime.start.p0(i64 4, ptr %6) #12
  %8 = load ptr, ptr %4, align 8, !tbaa !27
  %9 = getelementptr inbounds nuw %struct.FLAC__StreamMetadata_VorbisComment, ptr %8, i32 0, i32 0
  %10 = getelementptr inbounds nuw %struct.FLAC__StreamMetadata_VorbisComment_Entry, ptr %9, i32 0, i32 0
  %11 = load i32, ptr %10, align 8, !tbaa !54
  %12 = load ptr, ptr %5, align 8, !tbaa !27
  %13 = getelementptr inbounds nuw %struct.FLAC__StreamMetadata_VorbisComment, ptr %12, i32 0, i32 0
  %14 = getelementptr inbounds nuw %struct.FLAC__StreamMetadata_VorbisComment_Entry, ptr %13, i32 0, i32 0
  %15 = load i32, ptr %14, align 8, !tbaa !54
  %16 = icmp ne i32 %11, %15
  br i1 %16, label %17, label %18

17:                                               ; preds = %2
  store i32 0, ptr %3, align 4
  store i32 1, ptr %7, align 4
  br label %151

18:                                               ; preds = %2
  %19 = load ptr, ptr %4, align 8, !tbaa !27
  %20 = getelementptr inbounds nuw %struct.FLAC__StreamMetadata_VorbisComment, ptr %19, i32 0, i32 0
  %21 = getelementptr inbounds nuw %struct.FLAC__StreamMetadata_VorbisComment_Entry, ptr %20, i32 0, i32 1
  %22 = load ptr, ptr %21, align 8, !tbaa !56
  %23 = icmp ne ptr %22, null
  br i1 %23, label %24, label %48

24:                                               ; preds = %18
  %25 = load ptr, ptr %5, align 8, !tbaa !27
  %26 = getelementptr inbounds nuw %struct.FLAC__StreamMetadata_VorbisComment, ptr %25, i32 0, i32 0
  %27 = getelementptr inbounds nuw %struct.FLAC__StreamMetadata_VorbisComment_Entry, ptr %26, i32 0, i32 1
  %28 = load ptr, ptr %27, align 8, !tbaa !56
  %29 = icmp ne ptr %28, null
  br i1 %29, label %30, label %48

30:                                               ; preds = %24
  %31 = load ptr, ptr %4, align 8, !tbaa !27
  %32 = getelementptr inbounds nuw %struct.FLAC__StreamMetadata_VorbisComment, ptr %31, i32 0, i32 0
  %33 = getelementptr inbounds nuw %struct.FLAC__StreamMetadata_VorbisComment_Entry, ptr %32, i32 0, i32 1
  %34 = load ptr, ptr %33, align 8, !tbaa !56
  %35 = load ptr, ptr %5, align 8, !tbaa !27
  %36 = getelementptr inbounds nuw %struct.FLAC__StreamMetadata_VorbisComment, ptr %35, i32 0, i32 0
  %37 = getelementptr inbounds nuw %struct.FLAC__StreamMetadata_VorbisComment_Entry, ptr %36, i32 0, i32 1
  %38 = load ptr, ptr %37, align 8, !tbaa !56
  %39 = load ptr, ptr %4, align 8, !tbaa !27
  %40 = getelementptr inbounds nuw %struct.FLAC__StreamMetadata_VorbisComment, ptr %39, i32 0, i32 0
  %41 = getelementptr inbounds nuw %struct.FLAC__StreamMetadata_VorbisComment_Entry, ptr %40, i32 0, i32 0
  %42 = load i32, ptr %41, align 8, !tbaa !54
  %43 = zext i32 %42 to i64
  %44 = call i32 @memcmp(ptr noundef %34, ptr noundef %38, i64 noundef %43) #14
  %45 = icmp ne i32 %44, 0
  br i1 %45, label %46, label %47

46:                                               ; preds = %30
  store i32 0, ptr %3, align 4
  store i32 1, ptr %7, align 4
  br label %151

47:                                               ; preds = %30
  br label %60

48:                                               ; preds = %24, %18
  %49 = load ptr, ptr %4, align 8, !tbaa !27
  %50 = getelementptr inbounds nuw %struct.FLAC__StreamMetadata_VorbisComment, ptr %49, i32 0, i32 0
  %51 = getelementptr inbounds nuw %struct.FLAC__StreamMetadata_VorbisComment_Entry, ptr %50, i32 0, i32 1
  %52 = load ptr, ptr %51, align 8, !tbaa !56
  %53 = load ptr, ptr %5, align 8, !tbaa !27
  %54 = getelementptr inbounds nuw %struct.FLAC__StreamMetadata_VorbisComment, ptr %53, i32 0, i32 0
  %55 = getelementptr inbounds nuw %struct.FLAC__StreamMetadata_VorbisComment_Entry, ptr %54, i32 0, i32 1
  %56 = load ptr, ptr %55, align 8, !tbaa !56
  %57 = icmp ne ptr %52, %56
  br i1 %57, label %58, label %59

58:                                               ; preds = %48
  store i32 0, ptr %3, align 4
  store i32 1, ptr %7, align 4
  br label %151

59:                                               ; preds = %48
  br label %60

60:                                               ; preds = %59, %47
  %61 = load ptr, ptr %4, align 8, !tbaa !27
  %62 = getelementptr inbounds nuw %struct.FLAC__StreamMetadata_VorbisComment, ptr %61, i32 0, i32 1
  %63 = load i32, ptr %62, align 8, !tbaa !57
  %64 = load ptr, ptr %5, align 8, !tbaa !27
  %65 = getelementptr inbounds nuw %struct.FLAC__StreamMetadata_VorbisComment, ptr %64, i32 0, i32 1
  %66 = load i32, ptr %65, align 8, !tbaa !57
  %67 = icmp ne i32 %63, %66
  br i1 %67, label %68, label %69

68:                                               ; preds = %60
  store i32 0, ptr %3, align 4
  store i32 1, ptr %7, align 4
  br label %151

69:                                               ; preds = %60
  store i32 0, ptr %6, align 4, !tbaa !3
  br label %70

70:                                               ; preds = %147, %69
  %71 = load i32, ptr %6, align 4, !tbaa !3
  %72 = load ptr, ptr %4, align 8, !tbaa !27
  %73 = getelementptr inbounds nuw %struct.FLAC__StreamMetadata_VorbisComment, ptr %72, i32 0, i32 1
  %74 = load i32, ptr %73, align 8, !tbaa !57
  %75 = icmp ult i32 %71, %74
  br i1 %75, label %76, label %150

76:                                               ; preds = %70
  %77 = load ptr, ptr %4, align 8, !tbaa !27
  %78 = getelementptr inbounds nuw %struct.FLAC__StreamMetadata_VorbisComment, ptr %77, i32 0, i32 2
  %79 = load ptr, ptr %78, align 8, !tbaa !58
  %80 = load i32, ptr %6, align 4, !tbaa !3
  %81 = zext i32 %80 to i64
  %82 = getelementptr inbounds nuw %struct.FLAC__StreamMetadata_VorbisComment_Entry, ptr %79, i64 %81
  %83 = getelementptr inbounds nuw %struct.FLAC__StreamMetadata_VorbisComment_Entry, ptr %82, i32 0, i32 1
  %84 = load ptr, ptr %83, align 8, !tbaa !29
  %85 = icmp ne ptr %84, null
  br i1 %85, label %86, label %126

86:                                               ; preds = %76
  %87 = load ptr, ptr %5, align 8, !tbaa !27
  %88 = getelementptr inbounds nuw %struct.FLAC__StreamMetadata_VorbisComment, ptr %87, i32 0, i32 2
  %89 = load ptr, ptr %88, align 8, !tbaa !58
  %90 = load i32, ptr %6, align 4, !tbaa !3
  %91 = zext i32 %90 to i64
  %92 = getelementptr inbounds nuw %struct.FLAC__StreamMetadata_VorbisComment_Entry, ptr %89, i64 %91
  %93 = getelementptr inbounds nuw %struct.FLAC__StreamMetadata_VorbisComment_Entry, ptr %92, i32 0, i32 1
  %94 = load ptr, ptr %93, align 8, !tbaa !29
  %95 = icmp ne ptr %94, null
  br i1 %95, label %96, label %126

96:                                               ; preds = %86
  %97 = load ptr, ptr %4, align 8, !tbaa !27
  %98 = getelementptr inbounds nuw %struct.FLAC__StreamMetadata_VorbisComment, ptr %97, i32 0, i32 2
  %99 = load ptr, ptr %98, align 8, !tbaa !58
  %100 = load i32, ptr %6, align 4, !tbaa !3
  %101 = zext i32 %100 to i64
  %102 = getelementptr inbounds nuw %struct.FLAC__StreamMetadata_VorbisComment_Entry, ptr %99, i64 %101
  %103 = getelementptr inbounds nuw %struct.FLAC__StreamMetadata_VorbisComment_Entry, ptr %102, i32 0, i32 1
  %104 = load ptr, ptr %103, align 8, !tbaa !29
  %105 = load ptr, ptr %5, align 8, !tbaa !27
  %106 = getelementptr inbounds nuw %struct.FLAC__StreamMetadata_VorbisComment, ptr %105, i32 0, i32 2
  %107 = load ptr, ptr %106, align 8, !tbaa !58
  %108 = load i32, ptr %6, align 4, !tbaa !3
  %109 = zext i32 %108 to i64
  %110 = getelementptr inbounds nuw %struct.FLAC__StreamMetadata_VorbisComment_Entry, ptr %107, i64 %109
  %111 = getelementptr inbounds nuw %struct.FLAC__StreamMetadata_VorbisComment_Entry, ptr %110, i32 0, i32 1
  %112 = load ptr, ptr %111, align 8, !tbaa !29
  %113 = load ptr, ptr %4, align 8, !tbaa !27
  %114 = getelementptr inbounds nuw %struct.FLAC__StreamMetadata_VorbisComment, ptr %113, i32 0, i32 2
  %115 = load ptr, ptr %114, align 8, !tbaa !58
  %116 = load i32, ptr %6, align 4, !tbaa !3
  %117 = zext i32 %116 to i64
  %118 = getelementptr inbounds nuw %struct.FLAC__StreamMetadata_VorbisComment_Entry, ptr %115, i64 %117
  %119 = getelementptr inbounds nuw %struct.FLAC__StreamMetadata_VorbisComment_Entry, ptr %118, i32 0, i32 0
  %120 = load i32, ptr %119, align 8, !tbaa !19
  %121 = zext i32 %120 to i64
  %122 = call i32 @memcmp(ptr noundef %104, ptr noundef %112, i64 noundef %121) #14
  %123 = icmp ne i32 %122, 0
  br i1 %123, label %124, label %125

124:                                              ; preds = %96
  store i32 0, ptr %3, align 4
  store i32 1, ptr %7, align 4
  br label %151

125:                                              ; preds = %96
  br label %146

126:                                              ; preds = %86, %76
  %127 = load ptr, ptr %4, align 8, !tbaa !27
  %128 = getelementptr inbounds nuw %struct.FLAC__StreamMetadata_VorbisComment, ptr %127, i32 0, i32 2
  %129 = load ptr, ptr %128, align 8, !tbaa !58
  %130 = load i32, ptr %6, align 4, !tbaa !3
  %131 = zext i32 %130 to i64
  %132 = getelementptr inbounds nuw %struct.FLAC__StreamMetadata_VorbisComment_Entry, ptr %129, i64 %131
  %133 = getelementptr inbounds nuw %struct.FLAC__StreamMetadata_VorbisComment_Entry, ptr %132, i32 0, i32 1
  %134 = load ptr, ptr %133, align 8, !tbaa !29
  %135 = load ptr, ptr %5, align 8, !tbaa !27
  %136 = getelementptr inbounds nuw %struct.FLAC__StreamMetadata_VorbisComment, ptr %135, i32 0, i32 2
  %137 = load ptr, ptr %136, align 8, !tbaa !58
  %138 = load i32, ptr %6, align 4, !tbaa !3
  %139 = zext i32 %138 to i64
  %140 = getelementptr inbounds nuw %struct.FLAC__StreamMetadata_VorbisComment_Entry, ptr %137, i64 %139
  %141 = getelementptr inbounds nuw %struct.FLAC__StreamMetadata_VorbisComment_Entry, ptr %140, i32 0, i32 1
  %142 = load ptr, ptr %141, align 8, !tbaa !29
  %143 = icmp ne ptr %134, %142
  br i1 %143, label %144, label %145

144:                                              ; preds = %126
  store i32 0, ptr %3, align 4
  store i32 1, ptr %7, align 4
  br label %151

145:                                              ; preds = %126
  br label %146

146:                                              ; preds = %145, %125
  br label %147

147:                                              ; preds = %146
  %148 = load i32, ptr %6, align 4, !tbaa !3
  %149 = add i32 %148, 1
  store i32 %149, ptr %6, align 4, !tbaa !3
  br label %70, !llvm.loop !59

150:                                              ; preds = %70
  store i32 1, ptr %3, align 4
  store i32 1, ptr %7, align 4
  br label %151

151:                                              ; preds = %150, %144, %124, %68, %58, %46, %17
  call void @llvm.lifetime.end.p0(i64 4, ptr %6) #12
  %152 = load i32, ptr %3, align 4
  ret i32 %152
}