; Function Attrs: nofree nounwind sspstrong memory(read, inaccessiblemem: none) uwtable
define internal fastcc range(i32 0, 2) i32 @compare_block_data_vorbiscomment_(ptr noundef readonly captures(none) %0, ptr noundef readonly captures(none) %1) unnamed_addr #6 {
  %3 = load i32, ptr %0, align 8, !tbaa !48
  %4 = load i32, ptr %1, align 8, !tbaa !48
  %.not = icmp eq i32 %3, %4
  br i1 %.not, label %5, label %.loopexit

5:                                                ; preds = %2
  %6 = getelementptr inbounds nuw i8, ptr %0, i64 8
  %7 = load ptr, ptr %6, align 8, !tbaa !50
  %.not34 = icmp eq ptr %7, null
  %.phi.trans.insert = getelementptr inbounds nuw i8, ptr %1, i64 8
  %.pre = load ptr, ptr %.phi.trans.insert, align 8, !tbaa !50
  br i1 %.not34, label %11, label %8

8:                                                ; preds = %5
  %.not35 = icmp eq ptr %.pre, null
  br i1 %.not35, label %.loopexit, label %9

9:                                                ; preds = %8
  %10 = zext i32 %3 to i64
  %bcmp = tail call i32 @bcmp(ptr nonnull %7, ptr nonnull %.pre, i64 %10)
  %.not37 = icmp eq i32 %bcmp, 0
  br i1 %.not37, label %12, label %.loopexit

11:                                               ; preds = %5
  %.not36 = icmp eq ptr %7, %.pre
  br i1 %.not36, label %12, label %.loopexit

12:                                               ; preds = %11, %9
  %13 = getelementptr inbounds nuw i8, ptr %0, i64 16
  %14 = load i32, ptr %13, align 8, !tbaa !51
  %15 = getelementptr inbounds nuw i8, ptr %1, i64 16
  %16 = load i32, ptr %15, align 8, !tbaa !51
  %.not38 = icmp eq i32 %14, %16
  br i1 %.not38, label %.preheader, label %.loopexit

.preheader:                                       ; preds = %12
  %.not49 = icmp eq i32 %14, 0
  br i1 %.not49, label %.loopexit, label %.lr.ph

.lr.ph:                                           ; preds = %.preheader
  %17 = getelementptr inbounds nuw i8, ptr %0, i64 24
  %18 = load ptr, ptr %17, align 8, !tbaa !52
  %19 = getelementptr inbounds nuw i8, ptr %1, i64 24
  %wide.trip.count = zext i32 %14 to i64
  %.pre51.pre = load ptr, ptr %19, align 8, !tbaa !52
  br label %20

20:                                               ; preds = %.lr.ph, %29
  %indvars.iv = phi i64 [ 0, %.lr.ph ], [ %indvars.iv.next, %29 ]
  %21 = getelementptr inbounds nuw %struct.FLAC__StreamMetadata_VorbisComment_Entry, ptr %18, i64 %indvars.iv
  %22 = getelementptr inbounds nuw i8, ptr %21, i64 8
  %23 = load ptr, ptr %22, align 8, !tbaa !17
  %.not39 = icmp eq ptr %23, null
  %.phi.trans.insert53 = getelementptr inbounds nuw %struct.FLAC__StreamMetadata_VorbisComment_Entry, ptr %.pre51.pre, i64 %indvars.iv, i32 1
  %.pre54 = load ptr, ptr %.phi.trans.insert53, align 8, !tbaa !17
  br i1 %.not39, label %28, label %24

24:                                               ; preds = %20
  %.not40 = icmp eq ptr %.pre54, null
  br i1 %.not40, label %.loopexit, label %25

25:                                               ; preds = %24
  %26 = load i32, ptr %21, align 8, !tbaa !15
  %27 = zext i32 %26 to i64
  %bcmp42 = tail call i32 @bcmp(ptr nonnull %23, ptr nonnull %.pre54, i64 %27)
  %.not43 = icmp eq i32 %bcmp42, 0
  br i1 %.not43, label %29, label %.loopexit

28:                                               ; preds = %20
  %.not41 = icmp eq ptr %23, %.pre54
  br i1 %.not41, label %29, label %.loopexit

29:                                               ; preds = %25, %28
  %indvars.iv.next = add nuw nsw i64 %indvars.iv, 1
  %exitcond.not = icmp eq i64 %indvars.iv.next, %wide.trip.count
  br i1 %exitcond.not, label %.loopexit, label %20, !llvm.loop !53

.loopexit:                                        ; preds = %24, %25, %28, %29, %8, %.preheader, %12, %11, %9, %2
  %.028 = phi i32 [ 0, %2 ], [ 0, %9 ], [ 0, %11 ], [ 0, %12 ], [ 1, %.preheader ], [ 0, %8 ], [ 0, %24 ], [ 0, %25 ], [ 0, %28 ], [ 1, %29 ]
  ret i32 %.028
}